; Function Attrs: null_pointer_is_valid sspstrong uwtable
define zeroext i1 @tvbparse_peek(ptr noundef %0, ptr noundef %1) local_unnamed_addr #0 {
  %3 = alloca ptr, align 8
  %4 = alloca ptr, align 8
  call void @llvm.lifetime.start.p0(i64 8, ptr nonnull %4) #12
  store ptr null, ptr %4, align 8
  %5 = getelementptr inbounds nuw i8, ptr %0, i64 16
  %6 = load i32, ptr %5, align 8
  call void @llvm.lifetime.start.p0(i64 8, ptr nonnull %3) #12
  store ptr null, ptr %3, align 8
  %7 = getelementptr inbounds nuw i8, ptr %0, i64 32
  %8 = load ptr, ptr %7, align 8
  %.not.i = icmp eq ptr %8, null
  br i1 %.not.i, label %ignore_fcn.exit, label %.preheader.i

.preheader.i:                                     ; preds = %2
  %9 = getelementptr inbounds nuw i8, ptr %8, i64 8
  %10 = load ptr, ptr %9, align 8
  %11 = call i32 %10(ptr noundef %0, i32 noundef %6, ptr noundef nonnull %8, ptr noundef nonnull %3)
  %12 = icmp sgt i32 %11, 0
  br i1 %12, label %.lr.ph.i, label %ignore_fcn.exit

.lr.ph.i:                                         ; preds = %.preheader.i, %.lr.ph.i
  %13 = phi i32 [ %19, %.lr.ph.i ], [ %11, %.preheader.i ]
  %.01014.i = phi i32 [ %14, %.lr.ph.i ], [ 0, %.preheader.i ]
  %.01113.i = phi i32 [ %15, %.lr.ph.i ], [ %6, %.preheader.i ]
  %14 = add i32 %.01014.i, %13
  %15 = add i32 %.01113.i, %13
  %16 = load ptr, ptr %7, align 8
  %17 = getelementptr inbounds nuw i8, ptr %16, i64 8
  %18 = load ptr, ptr %17, align 8
  %19 = call i32 %18(ptr noundef %0, i32 noundef %15, ptr noundef %16, ptr noundef nonnull %3)
  %20 = icmp sgt i32 %19, 0
  br i1 %20, label %.lr.ph.i, label %ignore_fcn.exit, !llvm.loop !16

ignore_fcn.exit:                                  ; preds = %.lr.ph.i, %2, %.preheader.i
  %.0.i = phi i32 [ 0, %2 ], [ 0, %.preheader.i ], [ %14, %.lr.ph.i ]
  call void @llvm.lifetime.end.p0(i64 8, ptr nonnull %3) #12
  %21 = add i32 %.0.i, %6
  %22 = getelementptr inbounds nuw i8, ptr %1, i64 8
  %23 = load ptr, ptr %22, align 8
  %24 = call i32 %23(ptr noundef %0, i32 noundef %21, ptr noundef %1, ptr noundef nonnull %4)
  %25 = icmp sgt i32 %24, -1
  call void @llvm.lifetime.end.p0(i64 8, ptr nonnull %4) #12
  ret i1 %25
}